target datalayout = "e-m:e-p270:32:32-p271:32:32-p272:64:64-i64:64-i128:128-f80:128-n8:16:32:64-S128"
target triple = "x86_64-pc-linux-gnu"

%"class.std::__cxx11::basic_string" = type { %"struct.std::__cxx11::basic_string<char>::_Alloc_hider", i64, %union.anon.0 }
%"struct.std::__cxx11::basic_string<char>::_Alloc_hider" = type { ptr }
%union.anon.0 = type { i64, [8 x i8] }
%"class.std::_Function_base" = type { %"union.std::_Any_data", ptr }
%"union.std::_Any_data" = type { %"union.std::_Nocopy_types" }
%"union.std::_Nocopy_types" = type { { i64, i64 } }
%"class.OpenImageIO::v3_1_0::ArgParse" = type { %"class.std::shared_ptr" }
%"class.std::shared_ptr" = type { %"class.std::__shared_ptr" }
%"class.std::__shared_ptr" = type { ptr, %"class.std::__shared_count" }
%"class.std::__shared_count" = type { ptr }
%"class.OpenImageIO::v3_1_0::ArgParse::Impl" = type { ptr, i32, ptr, %"class.std::__cxx11::basic_string", ptr, ptr, %"class.std::__cxx11::basic_string", %"class.std::__cxx11::basic_string", %"class.std::__cxx11::basic_string", %"class.std::__cxx11::basic_string", %"class.std::__cxx11::basic_string", i8, i8, i8, i8, i8, i32, i32, %"class.std::vector.20", %"class.std::function.25", %"class.std::function.25", %"class.OpenImageIO::v3_1_0::ParamValueList", %"class.std::__cxx11::basic_string" }
%"class.std::vector.20" = type { %"struct.std::_Vector_base.21" }
%"struct.std::_Vector_base.21" = type { %"struct.std::_Vector_base<std::unique_ptr<OpenImageIO::v3_1_0::ArgOption>, std::allocator<std::unique_ptr<OpenImageIO::v3_1_0::ArgOption>>>::_Vector_impl" }
%"struct.std::_Vector_base<std::unique_ptr<OpenImageIO::v3_1_0::ArgOption>, std::allocator<std::unique_ptr<OpenImageIO::v3_1_0::ArgOption>>>::_Vector_impl" = type { %"struct.std::_Vector_base<std::unique_ptr<OpenImageIO::v3_1_0::ArgOption>, std::allocator<std::unique_ptr<OpenImageIO::v3_1_0::ArgOption>>>::_Vector_impl_data" }
%"struct.std::_Vector_base<std::unique_ptr<OpenImageIO::v3_1_0::ArgOption>, std::allocator<std::unique_ptr<OpenImageIO::v3_1_0::ArgOption>>>::_Vector_impl_data" = type { ptr, ptr, ptr }
%"class.std::function.25" = type { %"class.std::_Function_base", ptr }
%"class.OpenImageIO::v3_1_0::ParamValueList" = type { %"class.std::vector.28" }
%"class.std::vector.28" = type { %"struct.std::_Vector_base.29" }
%"struct.std::_Vector_base.29" = type { %"struct.std::_Vector_base<OpenImageIO::v3_1_0::ParamValue, std::allocator<OpenImageIO::v3_1_0::ParamValue>>::_Vector_impl" }
%"struct.std::_Vector_base<OpenImageIO::v3_1_0::ParamValue, std::allocator<OpenImageIO::v3_1_0::ParamValue>>::_Vector_impl" = type { %"struct.std::_Vector_base<OpenImageIO::v3_1_0::ParamValue, std::allocator<OpenImageIO::v3_1_0::ParamValue>>::_Vector_impl_data" }
%"struct.std::_Vector_base<OpenImageIO::v3_1_0::ParamValue, std::allocator<OpenImageIO::v3_1_0::ParamValue>>::_Vector_impl_data" = type { ptr, ptr, ptr }
%class.anon.37 = type { ptr }
%"class.OpenImageIO::v3_1_0::span" = type { ptr, i64 }

; Function Attrs: mustprogress nounwind uwtable
define linkonce_odr noundef ptr @_ZNKSt12__shared_ptrIN11OpenImageIO6v3_1_08ArgParse4ImplELN9__gnu_cxx12_Lock_policyE2EE3getEv(ptr noundef nonnull align 8 dereferenceable(16) %0) #7 comdat align 2 {
  %2 = alloca ptr, align 8
  store ptr %0, ptr %2, align 8, !tbaa !142
  %3 = load ptr, ptr %2, align 8
  %4 = getelementptr inbounds nuw %"class.std::__shared_ptr", ptr %3, i32 0, i32 0
  %5 = load ptr, ptr %4, align 8, !tbaa !457
  ret ptr %5
}

; Function Attrs: mustprogress nounwind uwtable
define linkonce_odr noundef ptr @_ZNKSt19__shared_ptr_accessIN11OpenImageIO6v3_1_08ArgParse4ImplELN9__gnu_cxx12_Lock_policyE2ELb0ELb0EE6_M_getEv(ptr noundef nonnull align 1 dereferenceable(1) %0) #7 comdat align 2 {
  %2 = alloca ptr, align 8
  store ptr %0, ptr %2, align 8, !tbaa !144
  %3 = load ptr, ptr %2, align 8
  %4 = call noundef ptr @_ZNKSt12__shared_ptrIN11OpenImageIO6v3_1_08ArgParse4ImplELN9__gnu_cxx12_Lock_policyE2EE3getEv(ptr noundef nonnull align 8 dereferenceable(16) %3) #3
  ret ptr %4
}

; Function Attrs: mustprogress nounwind uwtable
define linkonce_odr noundef ptr @_ZNKSt19__shared_ptr_accessIN11OpenImageIO6v3_1_08ArgParse4ImplELN9__gnu_cxx12_Lock_policyE2ELb0ELb0EEptEv(ptr noundef nonnull align 1 dereferenceable(1) %0) #7 comdat align 2 {
  %2 = alloca ptr, align 8
  store ptr %0, ptr %2, align 8, !tbaa !144
  %3 = load ptr, ptr %2, align 8
  %4 = call noundef ptr @_ZNKSt19__shared_ptr_accessIN11OpenImageIO6v3_1_08ArgParse4ImplELN9__gnu_cxx12_Lock_policyE2ELb0ELb0EE6_M_getEv(ptr noundef nonnull align 1 dereferenceable(1) %3) #3
  ret ptr %4
}

; Function Attrs: mustprogress nounwind uwtable
define void @_ZN11OpenImageIO6v3_1_08ArgParse5abortEb(ptr noundef nonnull align 8 dereferenceable(16) %0, i1 noundef zeroext %1) #7 align 2 {
  %3 = alloca ptr, align 8
  %4 = alloca i8, align 1
  store ptr %0, ptr %3, align 8, !tbaa !10
  %5 = zext i1 %1 to i8
  store i8 %5, ptr %4, align 1, !tbaa !81
  %6 = load ptr, ptr %3, align 8
  %7 = load i8, ptr %4, align 1, !tbaa !81, !range !82, !noundef !83
  %8 = trunc i8 %7 to i1
  %9 = getelementptr inbounds nuw %"class.OpenImageIO::v3_1_0::ArgParse", ptr %6, i32 0, i32 0
  %10 = call noundef ptr @_ZNKSt19__shared_ptr_accessIN11OpenImageIO6v3_1_08ArgParse4ImplELN9__gnu_cxx12_Lock_policyE2ELb0ELb0EEptEv(ptr noundef nonnull align 1 dereferenceable(1) %9) #3
  %11 = getelementptr inbounds nuw %"class.OpenImageIO::v3_1_0::ArgParse::Impl", ptr %10, i32 0, i32 15
  %12 = zext i1 %8 to i8
  store i8 %12, ptr %11, align 4, !tbaa !138
  ret void
}

; Function Attrs: inlinehint mustprogress uwtable
define internal void @"_ZZN11OpenImageIO6v3_1_08ArgParse4Impl10parse_argsEiPPKcENK3$_1clERNS1_3ArgENS0_4spanIKS4_Lm18446744073709551615EEE"(ptr noundef nonnull align 8 dereferenceable(8) %0, ptr noundef nonnull align 8 dereferenceable(8) %1, ptr %2, i64 %3) #11 align 2 {
  %5 = alloca %"class.OpenImageIO::v3_1_0::span", align 8
  %6 = alloca ptr, align 8
  %7 = alloca ptr, align 8
  %8 = getelementptr inbounds nuw { ptr, i64 }, ptr %5, i32 0, i32 0
  store ptr %2, ptr %8, align 8
  %9 = getelementptr inbounds nuw { ptr, i64 }, ptr %5, i32 0, i32 1
  store i64 %3, ptr %9, align 8
  store ptr %0, ptr %6, align 8, !tbaa !93
  store ptr %1, ptr %7, align 8, !tbaa !54
  %10 = load ptr, ptr %6, align 8
  %11 = getelementptr inbounds nuw %class.anon.37, ptr %10, i32 0, i32 0
  %12 = load ptr, ptr %11, align 8, !tbaa !149
  %13 = getelementptr inbounds nuw %"class.OpenImageIO::v3_1_0::ArgParse::Impl", ptr %12, i32 0, i32 0
  %14 = load ptr, ptr %13, align 8, !tbaa !146
  call void @_ZNK11OpenImageIO6v3_1_08ArgParse10print_helpEv(ptr noundef nonnull align 8 dereferenceable(16) %14)
  %15 = getelementptr inbounds nuw %"class.OpenImageIO::v3_1_0::ArgParse::Impl", ptr %12, i32 0, i32 13
  %16 = load i8, ptr %15, align 2, !tbaa !136, !range !82, !noundef !83
  %17 = trunc i8 %16 to i1
  br i1 %17, label %18, label %19

18:                                               ; preds = %4
  call void @exit(i32 noundef 0) #28
  unreachable

19:                                               ; preds = %4
  %20 = getelementptr inbounds nuw %"class.OpenImageIO::v3_1_0::ArgParse::Impl", ptr %12, i32 0, i32 0
  %21 = load ptr, ptr %20, align 8, !tbaa !146
  call void @_ZN11OpenImageIO6v3_1_08ArgParse5abortEb(ptr noundef nonnull align 8 dereferenceable(16) %21, i1 noundef zeroext true)
  br label %22

22:                                               ; preds = %19
  ret void
}

; Function Attrs: mustprogress nounwind uwtable
define linkonce_odr noundef ptr @_ZNKSt9_Any_data9_M_accessEv(ptr noundef nonnull align 8 dereferenceable(16) %0) #7 comdat align 2 {
  %2 = alloca ptr, align 8
  store ptr %0, ptr %2, align 8, !tbaa !275
  %3 = load ptr, ptr %2, align 8
  %4 = getelementptr inbounds [16 x i8], ptr %3, i64 0, i64 0
  ret ptr %4
}

; Function Attrs: mustprogress uwtable
define internal void @"_ZSt13__invoke_implIvRZN11OpenImageIO6v3_1_08ArgParse4Impl10parse_argsEiPPKcE3$_1JRNS2_3ArgENS1_4spanIKS5_Lm18446744073709551615EEEEET_St14__invoke_otherOT0_DpOT1_"(ptr noundef nonnull align 8 dereferenceable(8) %0, ptr noundef nonnull align 8 dereferenceable(8) %1, ptr noundef nonnull align 8 dereferenceable(16) %2) #6 {
  %4 = alloca ptr, align 8
  %5 = alloca ptr, align 8
  %6 = alloca ptr, align 8
  %7 = alloca %"class.OpenImageIO::v3_1_0::span", align 8
  store ptr %0, ptr %4, align 8, !tbaa !93
  store ptr %1, ptr %5, align 8, !tbaa !54
  store ptr %2, ptr %6, align 8, !tbaa !168
  %8 = load ptr, ptr %4, align 8, !tbaa !93
  %9 = load ptr, ptr %5, align 8, !tbaa !54
  %10 = load ptr, ptr %6, align 8, !tbaa !168
  call void @llvm.memcpy.p0.p0.i64(ptr align 8 %7, ptr align 8 %10, i64 16, i1 false), !tbaa.struct !498
  %11 = getelementptr inbounds nuw { ptr, i64 }, ptr %7, i32 0, i32 0
  %12 = load ptr, ptr %11, align 8
  %13 = getelementptr inbounds nuw { ptr, i64 }, ptr %7, i32 0, i32 1
  %14 = load i64, ptr %13, align 8
  call void @"_ZZN11OpenImageIO6v3_1_08ArgParse4Impl10parse_argsEiPPKcENK3$_1clERNS1_3ArgENS0_4spanIKS4_Lm18446744073709551615EEE"(ptr noundef nonnull align 8 dereferenceable(8) %8, ptr noundef nonnull align 8 dereferenceable(8) %9, ptr %12, i64 %14)
  ret void
}

; Function Attrs: mustprogress nounwind uwtable
define internal noundef nonnull align 8 dereferenceable(8) ptr @"_ZNKSt9_Any_data9_M_accessIZN11OpenImageIO6v3_1_08ArgParse4Impl10parse_argsEiPPKcE3$_1EERKT_v"(ptr noundef nonnull align 8 dereferenceable(16) %0) #7 align 2 {
  %2 = alloca ptr, align 8
  store ptr %0, ptr %2, align 8, !tbaa !275
  %3 = load ptr, ptr %2, align 8
  %4 = call noundef ptr @_ZNKSt9_Any_data9_M_accessEv(ptr noundef nonnull align 8 dereferenceable(16) %3) #3
  ret ptr %4
}

; Function Attrs: mustprogress uwtable
define internal void @"_ZSt10__invoke_rIvRZN11OpenImageIO6v3_1_08ArgParse4Impl10parse_argsEiPPKcE3$_1JRNS2_3ArgENS1_4spanIKS5_Lm18446744073709551615EEEEENSt9enable_ifIX16is_invocable_r_vIT_T0_DpT1_EESF_E4typeEOSG_DpOSH_"(ptr noundef nonnull align 8 dereferenceable(8) %0, ptr noundef nonnull align 8 dereferenceable(8) %1, ptr noundef nonnull align 8 dereferenceable(16) %2) #6 {
  %4 = alloca ptr, align 8
  %5 = alloca ptr, align 8
  %6 = alloca ptr, align 8
  store ptr %0, ptr %4, align 8, !tbaa !93
  store ptr %1, ptr %5, align 8, !tbaa !54
  store ptr %2, ptr %6, align 8, !tbaa !168
  %7 = load ptr, ptr %4, align 8, !tbaa !93
  %8 = load ptr, ptr %5, align 8, !tbaa !54
  %9 = load ptr, ptr %6, align 8, !tbaa !168
  call void @"_ZSt13__invoke_implIvRZN11OpenImageIO6v3_1_08ArgParse4Impl10parse_argsEiPPKcE3$_1JRNS2_3ArgENS1_4spanIKS5_Lm18446744073709551615EEEEET_St14__invoke_otherOT0_DpOT1_"(ptr noundef nonnull align 8 dereferenceable(8) %7, ptr noundef nonnull align 8 dereferenceable(8) %8, ptr noundef nonnull align 8 dereferenceable(16) %9)
  ret void
}

; Function Attrs: mustprogress nounwind uwtable
define internal noundef ptr @"_ZNSt14_Function_base13_Base_managerIZN11OpenImageIO6v3_1_08ArgParse4Impl10parse_argsEiPPKcE3$_1E14_M_get_pointerERKSt9_Any_data"(ptr noundef nonnull align 8 dereferenceable(16) %0) #7 align 2 {
  %2 = alloca ptr, align 8
  %3 = alloca ptr, align 8
  store ptr %0, ptr %2, align 8, !tbaa !275
  call void @llvm.lifetime.start.p0(i64 8, ptr %3) #3
  %4 = load ptr, ptr %2, align 8, !tbaa !275
  %5 = call noundef nonnull align 8 dereferenceable(8) ptr @"_ZNKSt9_Any_data9_M_accessIZN11OpenImageIO6v3_1_08ArgParse4Impl10parse_argsEiPPKcE3$_1EERKT_v"(ptr noundef nonnull align 8 dereferenceable(16) %4) #3
  store ptr %5, ptr %3, align 8, !tbaa !93
  %6 = load ptr, ptr %3, align 8, !tbaa !93
  call void @llvm.lifetime.end.p0(i64 8, ptr %3) #3
  ret ptr %6
}

; Function Attrs: mustprogress uwtable
define internal void @"_ZNSt17_Function_handlerIFvRN11OpenImageIO6v3_1_08ArgParse3ArgENS1_4spanIKPKcLm18446744073709551615EEEEZNS2_4Impl10parse_argsEiPS7_E3$_1E9_M_invokeERKSt9_Any_dataS4_OS9_"(ptr noundef nonnull align 8 dereferenceable(16) %0, ptr noundef nonnull align 8 dereferenceable(8) %1, ptr noundef nonnull align 8 dereferenceable(16) %2) #6 align 2 {
  %4 = alloca ptr, align 8
  %5 = alloca ptr, align 8
  %6 = alloca ptr, align 8
  store ptr %0, ptr %4, align 8, !tbaa !275
  store ptr %1, ptr %5, align 8, !tbaa !54
  store ptr %2, ptr %6, align 8, !tbaa !168
  %7 = load ptr, ptr %4, align 8, !tbaa !275
  %8 = call noundef ptr @"_ZNSt14_Function_base13_Base_managerIZN11OpenImageIO6v3_1_08ArgParse4Impl10parse_argsEiPPKcE3$_1E14_M_get_pointerERKSt9_Any_data"(ptr noundef nonnull align 8 dereferenceable(16) %7) #3
  %9 = load ptr, ptr %5, align 8, !tbaa !54
  %10 = load ptr, ptr %6, align 8, !tbaa !168
  call void @"_ZSt10__invoke_rIvRZN11OpenImageIO6v3_1_08ArgParse4Impl10parse_argsEiPPKcE3$_1JRNS2_3ArgENS1_4spanIKS5_Lm18446744073709551615EEEEENSt9enable_ifIX16is_invocable_r_vIT_T0_DpT1_EESF_E4typeEOSG_DpOSH_"(ptr noundef nonnull align 8 dereferenceable(8) %8, ptr noundef nonnull align 8 dereferenceable(8) %9, ptr noundef nonnull align 8 dereferenceable(16) %10)
  ret void
}