; Function Attrs: mustprogress uwtable
define internal void @"_ZNSt17_Function_handlerIFvRN11OpenImageIO6v3_1_08ArgParse3ArgENS1_4spanIKPKcLm18446744073709551615EEEEZNS2_4Impl10parse_argsEiPS7_E3$_1E9_M_invokeERKSt9_Any_dataS4_OS9_"(ptr noundef nonnull readonly align 8 captures(none) dereferenceable(16) %0, ptr nonnull readnone align 8 captures(none) %1, ptr nonnull readonly align 8 captures(none) %2) #5 align 2 {
  %.val = load ptr, ptr %0, align 8, !tbaa !713
  %4 = load ptr, ptr %.val, align 8, !tbaa !142
  tail call void @_ZNK11OpenImageIO6v3_1_08ArgParse10print_helpEv(ptr noundef nonnull align 8 dereferenceable(16) %4)
  %5 = getelementptr inbounds nuw i8, ptr %.val, i64 234
  %6 = load i8, ptr %5, align 2, !tbaa !131, !range !92, !noundef !93
  %7 = trunc nuw i8 %6 to i1
  br i1 %7, label %8, label %"_ZSt10__invoke_rIvRZN11OpenImageIO6v3_1_08ArgParse4Impl10parse_argsEiPPKcE3$_1JRNS2_3ArgENS1_4spanIKS5_Lm18446744073709551615EEEEENSt9enable_ifIX16is_invocable_r_vIT_T0_DpT1_EESF_E4typeEOSG_DpOSH_.exit"

8:                                                ; preds = %3
  tail call void @exit(i32 noundef 0) #38
  unreachable

"_ZSt10__invoke_rIvRZN11OpenImageIO6v3_1_08ArgParse4Impl10parse_argsEiPPKcE3$_1JRNS2_3ArgENS1_4spanIKS5_Lm18446744073709551615EEEEENSt9enable_ifIX16is_invocable_r_vIT_T0_DpT1_EESF_E4typeEOSG_DpOSH_.exit": ; preds = %3
  %9 = load ptr, ptr %.val, align 8, !tbaa !142
  %10 = load ptr, ptr %9, align 8, !tbaa !107
  %11 = getelementptr inbounds nuw i8, ptr %10, i64 236
  store i8 1, ptr %11, align 4, !tbaa !133
  ret void
}